target datalayout = "e-m:e-p270:32:32-p271:32:32-p272:64:64-i64:64-i128:128-f80:128-n8:16:32:64-S128"
target triple = "x86_64-pc-linux-gnu"

%union.SourceSpan = type { i64 }
%struct.Expr_ = type { ptr, %union.SourceSpan, i16, %union.anon.61 }
%union.anon.61 = type { %struct.ExprAnySwitch }
%struct.ExprAnySwitch = type { i8, %union.anon.63 }
%union.anon.63 = type { %struct.anon.64 }
%struct.anon.64 = type { ptr, %union.SourceSpan, ptr }
%struct.Type_ = type { i32, ptr, ptr, ptr, %union.anon.86, ptr, ptr, %union.anon.88 }
%union.anon.86 = type { ptr }
%union.anon.88 = type { %struct.TypeFunction }
%struct.TypeFunction = type { ptr, ptr, ptr }
%struct.ExprAccess = type { ptr, %union.anon.62 }
%union.anon.62 = type { ptr }
%struct.Decl_ = type { ptr, ptr, %union.SourceSpan, i64, %union.anon, i32, %union.anon.0, i64, ptr, ptr, ptr, %union.anon.1 }
%union.anon = type { ptr }
%union.anon.0 = type { i16 }
%union.anon.1 = type { %struct.FuncDecl }
%struct.FuncDecl = type { i32, [4 x i8], %struct.Signature_, i32, i32, %union.anon.8 }
%struct.Signature_ = type <{ %struct.CalleeAttributes, i16, i8, i32, i32, [4 x i8], ptr }>
%struct.CalleeAttributes = type { i8 }
%union.anon.8 = type { %struct.anon.9 }
%struct.anon.9 = type { i16, %union.anon.10 }
%union.anon.10 = type { ptr }
%struct.anon.2 = type { ptr, ptr, %union.anon.3 }
%union.anon.3 = type { %struct.BitStructDecl }
%struct.BitStructDecl = type { ptr, ptr, i8 }
%struct.StructDecl = type { i32, ptr, i32, i16 }

; Function Attrs: nounwind uwtable
define dso_local ptr @expr_access_inline_member(ptr noundef %0, ptr noundef %1) #0 {
  %3 = alloca ptr, align 8
  %4 = alloca ptr, align 8
  %5 = alloca ptr, align 8
  store ptr %0, ptr %3, align 8
  store ptr %1, ptr %4, align 8
  %6 = load ptr, ptr %3, align 8
  %7 = getelementptr inbounds %struct.Expr_, ptr %6, i32 0, i32 1
  %8 = getelementptr inbounds %union.SourceSpan, ptr %7, i32 0, i32 0
  %9 = load i64, ptr %8, align 8
  %10 = call ptr @expr_new(i32 noundef 1, i64 %9)
  store ptr %10, ptr %5, align 8
  %11 = load ptr, ptr %5, align 8
  %12 = getelementptr inbounds %struct.Expr_, ptr %11, i32 0, i32 2
  %13 = load i16, ptr %12, align 8
  %14 = and i16 %13, -3841
  %15 = or i16 %14, 512
  store i16 %15, ptr %12, align 8
  %16 = load ptr, ptr %3, align 8
  %17 = load ptr, ptr %5, align 8
  %18 = getelementptr inbounds %struct.Expr_, ptr %17, i32 0, i32 3
  %19 = getelementptr inbounds %struct.ExprAccess, ptr %18, i32 0, i32 0
  store ptr %16, ptr %19, align 8
  %20 = load ptr, ptr %4, align 8
  %21 = getelementptr inbounds %struct.Decl_, ptr %20, i32 0, i32 11
  %22 = getelementptr inbounds %struct.anon.2, ptr %21, i32 0, i32 2
  %23 = getelementptr inbounds %struct.StructDecl, ptr %22, i32 0, i32 1
  %24 = load ptr, ptr %23, align 8
  %25 = getelementptr inbounds ptr, ptr %24, i64 0
  %26 = load ptr, ptr %25, align 8
  %27 = load ptr, ptr %5, align 8
  %28 = getelementptr inbounds %struct.Expr_, ptr %27, i32 0, i32 3
  %29 = getelementptr inbounds %struct.ExprAccess, ptr %28, i32 0, i32 1
  store ptr %26, ptr %29, align 8
  %30 = load ptr, ptr %5, align 8
  %31 = getelementptr inbounds %struct.Expr_, ptr %30, i32 0, i32 3
  %32 = getelementptr inbounds %struct.ExprAccess, ptr %31, i32 0, i32 1
  %33 = load ptr, ptr %32, align 8
  %34 = getelementptr inbounds %struct.Decl_, ptr %33, i32 0, i32 10
  %35 = load ptr, ptr %34, align 8
  %36 = load ptr, ptr %5, align 8
  %37 = getelementptr inbounds %struct.Expr_, ptr %36, i32 0, i32 0
  store ptr %35, ptr %37, align 8
  %38 = load ptr, ptr %5, align 8
  ret ptr %38
}

; Function Attrs: nounwind uwtable
define internal ptr @sema_subscript_find_indexable_type_recursively(ptr noundef %0, ptr noundef %1) #0 {
  %3 = alloca ptr, align 8
  %4 = alloca i32, align 4
  %5 = alloca ptr, align 8
  %6 = alloca ptr, align 8
  %7 = alloca ptr, align 8
  %8 = alloca ptr, align 8
  store ptr %0, ptr %5, align 8
  store ptr %1, ptr %6, align 8
  br label %9

9:                                                ; preds = %41, %2
  %10 = load ptr, ptr %5, align 8
  %11 = load ptr, ptr %10, align 8
  %12 = call ptr @type_get_indexed_type(ptr noundef %11)
  store ptr %12, ptr %7, align 8
  %13 = load ptr, ptr %7, align 8
  %14 = icmp ne ptr %13, null
  br i1 %14, label %57, label %15

15:                                               ; preds = %9
  %16 = load ptr, ptr %5, align 8
  %17 = load ptr, ptr %16, align 8
  store ptr %17, ptr %3, align 8
  %18 = load ptr, ptr %3, align 8
  %19 = load i32, ptr %18, align 8
  store i32 %19, ptr %4, align 4
  %20 = load i32, ptr %4, align 4
  %21 = icmp eq i32 %20, 31
  br i1 %21, label %22, label %27

22:                                               ; preds = %15
  %23 = load ptr, ptr %3, align 8
  %24 = getelementptr inbounds %struct.Type_, ptr %23, i32 0, i32 1
  %25 = load ptr, ptr %24, align 8
  %26 = load i32, ptr %25, align 8
  store i32 %26, ptr %4, align 4
  br label %27

27:                                               ; preds = %22, %15
  %28 = load i32, ptr %4, align 4
  %29 = icmp eq i32 %28, 26
  br i1 %29, label %30, label %39

30:                                               ; preds = %27
  %31 = load ptr, ptr %3, align 8
  %32 = getelementptr inbounds %struct.Type_, ptr %31, i32 0, i32 7
  %33 = load ptr, ptr %32, align 8
  %34 = getelementptr inbounds %struct.Decl_, ptr %33, i32 0, i32 3
  %35 = load i64, ptr %34, align 8
  %36 = lshr i64 %35, 15
  %37 = and i64 %36, 1
  %38 = trunc i64 %37 to i1
  br label %39

39:                                               ; preds = %30, %27
  %40 = phi i1 [ false, %27 ], [ %38, %30 ]
  br i1 %40, label %41, label %57

41:                                               ; preds = %39
  %42 = load ptr, ptr %6, align 8
  %43 = load ptr, ptr %42, align 8
  %44 = load ptr, ptr %5, align 8
  %45 = load ptr, ptr %44, align 8
  %46 = getelementptr inbounds %struct.Type_, ptr %45, i32 0, i32 7
  %47 = load ptr, ptr %46, align 8
  %48 = call ptr @expr_access_inline_member(ptr noundef %43, ptr noundef %47)
  store ptr %48, ptr %8, align 8
  %49 = load ptr, ptr %8, align 8
  %50 = getelementptr inbounds %struct.Expr_, ptr %49, i32 0, i32 0
  %51 = load ptr, ptr %50, align 8
  %52 = getelementptr inbounds %struct.Type_, ptr %51, i32 0, i32 1
  %53 = load ptr, ptr %52, align 8
  %54 = load ptr, ptr %5, align 8
  store ptr %53, ptr %54, align 8
  %55 = load ptr, ptr %8, align 8
  %56 = load ptr, ptr %6, align 8
  store ptr %55, ptr %56, align 8
  br label %9

57:                                               ; preds = %39, %9
  %58 = load ptr, ptr %7, align 8
  ret ptr %58
}