; Function Attrs: nounwind uwtable
define internal fastcc ptr @sema_subscript_find_indexable_type_recursively(ptr nocapture noundef %0, ptr nocapture noundef %1) unnamed_addr #0 {
  %3 = load ptr, ptr %0, align 8
  %4 = tail call ptr @type_get_indexed_type(ptr noundef %3) #13
  %.not16 = icmp eq ptr %4, null
  br i1 %.not16, label %.lr.ph, label %.critedge

.lr.ph:                                           ; preds = %2, %20
  %5 = load ptr, ptr %0, align 8
  %6 = load i32, ptr %5, align 8
  %7 = icmp eq i32 %6, 31
  br i1 %7, label %8, label %12

8:                                                ; preds = %.lr.ph
  %9 = getelementptr inbounds i8, ptr %5, i64 8
  %10 = load ptr, ptr %9, align 8
  %11 = load i32, ptr %10, align 8
  br label %12

12:                                               ; preds = %8, %.lr.ph
  %.0 = phi i32 [ %11, %8 ], [ %6, %.lr.ph ]
  %13 = icmp eq i32 %.0, 26
  br i1 %13, label %14, label %.critedge

14:                                               ; preds = %12
  %15 = getelementptr inbounds i8, ptr %5, i64 56
  %16 = load ptr, ptr %15, align 8
  %17 = getelementptr inbounds i8, ptr %16, i64 24
  %18 = load i64, ptr %17, align 8
  %19 = and i64 %18, 32768
  %.not15 = icmp eq i64 %19, 0
  br i1 %.not15, label %.critedge, label %20

20:                                               ; preds = %14
  %21 = load ptr, ptr %1, align 8
  %22 = getelementptr inbounds i8, ptr %21, i64 8
  %23 = load i64, ptr %22, align 8
  %24 = tail call ptr @expr_new(i32 noundef 1, i64 %23) #13
  %25 = getelementptr inbounds i8, ptr %24, i64 16
  %26 = load i16, ptr %25, align 8
  %27 = and i16 %26, -3841
  %28 = or disjoint i16 %27, 512
  store i16 %28, ptr %25, align 8
  %29 = getelementptr inbounds i8, ptr %24, i64 24
  store ptr %21, ptr %29, align 8
  %30 = getelementptr inbounds i8, ptr %16, i64 104
  %31 = load ptr, ptr %30, align 8
  %32 = load ptr, ptr %31, align 8
  %33 = getelementptr inbounds i8, ptr %24, i64 32
  store ptr %32, ptr %33, align 8
  %34 = getelementptr inbounds i8, ptr %32, i64 72
  %35 = load ptr, ptr %34, align 8
  store ptr %35, ptr %24, align 8
  %36 = getelementptr inbounds i8, ptr %35, i64 8
  %37 = load ptr, ptr %36, align 8
  store ptr %37, ptr %0, align 8
  store ptr %24, ptr %1, align 8
  %38 = load ptr, ptr %0, align 8
  %39 = tail call ptr @type_get_indexed_type(ptr noundef %38) #13
  %.not = icmp eq ptr %39, null
  br i1 %.not, label %.lr.ph, label %.critedge

.critedge:                                        ; preds = %20, %14, %12, %2
  %.lcssa = phi ptr [ %4, %2 ], [ null, %12 ], [ null, %14 ], [ %39, %20 ]
  ret ptr %.lcssa
}